target datalayout = "e-m:e-p270:32:32-p271:32:32-p272:64:64-i64:64-i128:128-f80:128-n8:16:32:64-S128"
target triple = "x86_64-pc-linux-gnu"

%struct.Agsym_s = type { %struct.dtlink_s_, ptr, ptr, i32, i8, i8, i8 }
%struct.dtlink_s_ = type { ptr, %union.anon.0 }
%union.anon.0 = type { ptr }
%struct.Agattr_s = type { %struct.Agrec_s, ptr, ptr }
%struct.Agrec_s = type { ptr, ptr }

@AgDataRecName = global ptr @.str, align 8
@stderr = external global ptr, align 8
@.str.5 = private unnamed_addr constant [58 x i8] c"integer overflow when trying to allocate %zu * %zu bytes\0A\00", align 1
@.str.6 = private unnamed_addr constant [49 x i8] c"out of memory when trying to allocate %zu bytes\0A\00", align 1

; Function Attrs: inlinehint nounwind uwtable
define internal ptr @gv_realloc(ptr noundef %0, i64 noundef %1, i64 noundef %2) #4 {
  %4 = alloca ptr, align 8
  %5 = alloca ptr, align 8
  %6 = alloca i64, align 8
  %7 = alloca i64, align 8
  %8 = alloca ptr, align 8
  store ptr %0, ptr %5, align 8, !tbaa !3
  store i64 %1, ptr %6, align 8, !tbaa !67
  store i64 %2, ptr %7, align 8, !tbaa !67
  %9 = load i64, ptr %7, align 8, !tbaa !67
  %10 = icmp eq i64 %9, 0
  br i1 %10, label %11, label %13

11:                                               ; preds = %3
  %12 = load ptr, ptr %5, align 8, !tbaa !3
  call void @free(ptr noundef %12) #11
  store ptr null, ptr %4, align 8
  br label %36

13:                                               ; preds = %3
  call void @llvm.lifetime.start.p0(i64 8, ptr %8) #11
  %14 = load ptr, ptr %5, align 8, !tbaa !3
  %15 = load i64, ptr %7, align 8, !tbaa !67
  %16 = call ptr @realloc(ptr noundef %14, i64 noundef %15) #16
  store ptr %16, ptr %8, align 8, !tbaa !3
  %17 = load ptr, ptr %8, align 8, !tbaa !3
  %18 = icmp eq ptr %17, null
  br i1 %18, label %19, label %23

19:                                               ; preds = %13
  %20 = load ptr, ptr @stderr, align 8, !tbaa !63
  %21 = load i64, ptr %7, align 8, !tbaa !67
  %22 = call i32 (ptr, ptr, ...) @fprintf(ptr noundef %20, ptr noundef @.str.6, i64 noundef %21) #11
  call void @graphviz_exit(i32 noundef 1) #14
  unreachable

23:                                               ; preds = %13
  %24 = load i64, ptr %7, align 8, !tbaa !67
  %25 = load i64, ptr %6, align 8, !tbaa !67
  %26 = icmp ugt i64 %24, %25
  br i1 %26, label %27, label %34

27:                                               ; preds = %23
  %28 = load ptr, ptr %8, align 8, !tbaa !3
  %29 = load i64, ptr %6, align 8, !tbaa !67
  %30 = getelementptr inbounds nuw i8, ptr %28, i64 %29
  %31 = load i64, ptr %7, align 8, !tbaa !67
  %32 = load i64, ptr %6, align 8, !tbaa !67
  %33 = sub i64 %31, %32
  call void @llvm.memset.p0.i64(ptr align 1 %30, i8 0, i64 %33, i1 false)
  br label %34

34:                                               ; preds = %27, %23
  %35 = load ptr, ptr %8, align 8, !tbaa !3
  store ptr %35, ptr %4, align 8
  call void @llvm.lifetime.end.p0(i64 8, ptr %8) #11
  br label %36

36:                                               ; preds = %34, %11
  %37 = load ptr, ptr %4, align 8
  ret ptr %37
}

; Function Attrs: inlinehint nounwind uwtable
define internal ptr @gv_recalloc(ptr noundef %0, i64 noundef %1, i64 noundef %2, i64 noundef %3) #4 {
  %5 = alloca ptr, align 8
  %6 = alloca i64, align 8
  %7 = alloca i64, align 8
  %8 = alloca i64, align 8
  store ptr %0, ptr %5, align 8, !tbaa !3
  store i64 %1, ptr %6, align 8, !tbaa !67
  store i64 %2, ptr %7, align 8, !tbaa !67
  store i64 %3, ptr %8, align 8, !tbaa !67
  %9 = load i64, ptr %7, align 8, !tbaa !67
  %10 = load i64, ptr %8, align 8, !tbaa !67
  %11 = udiv i64 -1, %10
  %12 = icmp ugt i64 %9, %11
  br i1 %12, label %13, label %18

13:                                               ; preds = %4
  %14 = load ptr, ptr @stderr, align 8, !tbaa !63
  %15 = load i64, ptr %7, align 8, !tbaa !67
  %16 = load i64, ptr %8, align 8, !tbaa !67
  %17 = call i32 (ptr, ptr, ...) @fprintf(ptr noundef %14, ptr noundef @.str.5, i64 noundef %15, i64 noundef %16) #11
  call void @graphviz_exit(i32 noundef 1) #14
  unreachable

18:                                               ; preds = %4
  %19 = load ptr, ptr %5, align 8, !tbaa !3
  %20 = load i64, ptr %6, align 8, !tbaa !67
  %21 = load i64, ptr %8, align 8, !tbaa !67
  %22 = mul i64 %20, %21
  %23 = load i64, ptr %7, align 8, !tbaa !67
  %24 = load i64, ptr %8, align 8, !tbaa !67
  %25 = mul i64 %23, %24
  %26 = call ptr @gv_realloc(ptr noundef %19, i64 noundef %22, i64 noundef %25)
  ret ptr %26
}

; Function Attrs: nounwind uwtable
define ptr @agattrrec(ptr noundef %0) #0 {
  %2 = alloca ptr, align 8
  store ptr %0, ptr %2, align 8, !tbaa !3
  %3 = load ptr, ptr %2, align 8, !tbaa !3
  %4 = load ptr, ptr @AgDataRecName, align 8, !tbaa !31
  %5 = call ptr @aggetrec(ptr noundef %3, ptr noundef %4, i32 noundef 0)
  ret ptr %5
}

; Function Attrs: nounwind uwtable
define internal void @addattr(ptr noundef %0, ptr noundef %1, ptr noundef %2) #0 {
  %4 = alloca ptr, align 8
  %5 = alloca ptr, align 8
  %6 = alloca ptr, align 8
  %7 = alloca ptr, align 8
  store ptr %0, ptr %4, align 8, !tbaa !9
  store ptr %1, ptr %5, align 8, !tbaa !56
  store ptr %2, ptr %6, align 8, !tbaa !7
  call void @llvm.lifetime.start.p0(i64 8, ptr %7) #11
  %8 = load ptr, ptr %5, align 8, !tbaa !56
  %9 = call ptr @agattrrec(ptr noundef %8)
  store ptr %9, ptr %7, align 8, !tbaa !32
  %10 = load ptr, ptr %6, align 8, !tbaa !7
  %11 = getelementptr inbounds nuw %struct.Agsym_s, ptr %10, i32 0, i32 3
  %12 = load i32, ptr %11, align 8, !tbaa !52
  %13 = icmp sge i32 %12, 4
  br i1 %13, label %14, label %30

14:                                               ; preds = %3
  %15 = load ptr, ptr %7, align 8, !tbaa !32
  %16 = getelementptr inbounds nuw %struct.Agattr_s, ptr %15, i32 0, i32 2
  %17 = load ptr, ptr %16, align 8, !tbaa !51
  %18 = load ptr, ptr %6, align 8, !tbaa !7
  %19 = getelementptr inbounds nuw %struct.Agsym_s, ptr %18, i32 0, i32 3
  %20 = load i32, ptr %19, align 8, !tbaa !52
  %21 = sext i32 %20 to i64
  %22 = load ptr, ptr %6, align 8, !tbaa !7
  %23 = getelementptr inbounds nuw %struct.Agsym_s, ptr %22, i32 0, i32 3
  %24 = load i32, ptr %23, align 8, !tbaa !52
  %25 = sext i32 %24 to i64
  %26 = add i64 %25, 1
  %27 = call ptr @gv_recalloc(ptr noundef %17, i64 noundef %21, i64 noundef %26, i64 noundef 8)
  %28 = load ptr, ptr %7, align 8, !tbaa !32
  %29 = getelementptr inbounds nuw %struct.Agattr_s, ptr %28, i32 0, i32 2
  store ptr %27, ptr %29, align 8, !tbaa !51
  br label %30

30:                                               ; preds = %14, %3
  %31 = load ptr, ptr %6, align 8, !tbaa !7
  %32 = getelementptr inbounds nuw %struct.Agsym_s, ptr %31, i32 0, i32 2
  %33 = load ptr, ptr %32, align 8, !tbaa !17
  %34 = call i32 @aghtmlstr(ptr noundef %33)
  %35 = icmp ne i32 %34, 0
  br i1 %35, label %36, label %50

36:                                               ; preds = %30
  %37 = load ptr, ptr %4, align 8, !tbaa !9
  %38 = load ptr, ptr %6, align 8, !tbaa !7
  %39 = getelementptr inbounds nuw %struct.Agsym_s, ptr %38, i32 0, i32 2
  %40 = load ptr, ptr %39, align 8, !tbaa !17
  %41 = call ptr @agstrdup_html(ptr noundef %37, ptr noundef %40)
  %42 = load ptr, ptr %7, align 8, !tbaa !32
  %43 = getelementptr inbounds nuw %struct.Agattr_s, ptr %42, i32 0, i32 2
  %44 = load ptr, ptr %43, align 8, !tbaa !51
  %45 = load ptr, ptr %6, align 8, !tbaa !7
  %46 = getelementptr inbounds nuw %struct.Agsym_s, ptr %45, i32 0, i32 3
  %47 = load i32, ptr %46, align 8, !tbaa !52
  %48 = sext i32 %47 to i64
  %49 = getelementptr inbounds ptr, ptr %44, i64 %48
  store ptr %41, ptr %49, align 8, !tbaa !31
  br label %64

50:                                               ; preds = %30
  %51 = load ptr, ptr %4, align 8, !tbaa !9
  %52 = load ptr, ptr %6, align 8, !tbaa !7
  %53 = getelementptr inbounds nuw %struct.Agsym_s, ptr %52, i32 0, i32 2
  %54 = load ptr, ptr %53, align 8, !tbaa !17
  %55 = call ptr @agstrdup(ptr noundef %51, ptr noundef %54)
  %56 = load ptr, ptr %7, align 8, !tbaa !32
  %57 = getelementptr inbounds nuw %struct.Agattr_s, ptr %56, i32 0, i32 2
  %58 = load ptr, ptr %57, align 8, !tbaa !51
  %59 = load ptr, ptr %6, align 8, !tbaa !7
  %60 = getelementptr inbounds nuw %struct.Agsym_s, ptr %59, i32 0, i32 3
  %61 = load i32, ptr %60, align 8, !tbaa !52
  %62 = sext i32 %61 to i64
  %63 = getelementptr inbounds ptr, ptr %58, i64 %62
  store ptr %55, ptr %63, align 8, !tbaa !31
  br label %64

64:                                               ; preds = %50, %36
  call void @llvm.lifetime.end.p0(i64 8, ptr %7) #11
  ret void
}