; Function Attrs: nounwind uwtable
define internal void @addattr(ptr noundef %0, ptr noundef %1, ptr noundef readonly captures(none) %2) #0 {
  %4 = load ptr, ptr @AgDataRecName, align 8, !tbaa !15
  %5 = tail call ptr @aggetrec(ptr noundef %1, ptr noundef %4, i32 noundef 0) #12
  %6 = getelementptr inbounds nuw i8, ptr %2, i64 32
  %7 = load i32, ptr %6, align 8, !tbaa !36
  %8 = icmp sgt i32 %7, 3
  br i1 %8, label %9, label %21

9:                                                ; preds = %3
  %10 = getelementptr inbounds nuw i8, ptr %5, i64 24
  %11 = load ptr, ptr %10, align 8, !tbaa !35
  %12 = zext nneg i32 %7 to i64
  %13 = shl nuw nsw i64 %12, 3
  %14 = add nuw nsw i64 %13, 8
  %15 = tail call ptr @realloc(ptr noundef %11, i64 noundef range(i64 40, 17179869185) %14) #17
  %16 = icmp eq ptr %15, null
  br i1 %16, label %17, label %gv_recalloc.exit

17:                                               ; preds = %9
  %18 = load ptr, ptr @stderr, align 8, !tbaa !37
  %19 = tail call i32 (ptr, ptr, ...) @fprintf(ptr noundef %18, ptr noundef nonnull @.str.6, i64 noundef range(i64 40, 17179869185) %14) #15
  tail call fastcc void @graphviz_exit() #16
  unreachable

gv_recalloc.exit:                                 ; preds = %9
  %20 = getelementptr inbounds nuw i8, ptr %15, i64 %13
  store i64 0, ptr %20, align 1
  store ptr %15, ptr %10, align 8, !tbaa !35
  br label %21

21:                                               ; preds = %gv_recalloc.exit, %3
  %22 = getelementptr inbounds nuw i8, ptr %2, i64 24
  %23 = load ptr, ptr %22, align 8, !tbaa !14
  %24 = tail call i32 @aghtmlstr(ptr noundef %23) #12
  %.not = icmp eq i32 %24, 0
  %25 = load ptr, ptr %22, align 8, !tbaa !14
  br i1 %.not, label %28, label %26

26:                                               ; preds = %21
  %27 = tail call ptr @agstrdup_html(ptr noundef %0, ptr noundef %25) #12
  br label %30

28:                                               ; preds = %21
  %29 = tail call ptr @agstrdup(ptr noundef %0, ptr noundef %25) #12
  br label %30

30:                                               ; preds = %28, %26
  %.sink = phi ptr [ %29, %28 ], [ %27, %26 ]
  %31 = getelementptr inbounds nuw i8, ptr %5, i64 24
  %32 = load ptr, ptr %31, align 8, !tbaa !35
  %33 = load i32, ptr %6, align 8, !tbaa !36
  %34 = sext i32 %33 to i64
  %35 = getelementptr inbounds ptr, ptr %32, i64 %34
  store ptr %.sink, ptr %35, align 8, !tbaa !15
  ret void
}